target datalayout = "e-m:e-p270:32:32-p271:32:32-p272:64:64-i64:64-i128:128-f80:128-n8:16:32:64-S128"
target triple = "x86_64-pc-linux-gnu"

%struct.Subscription = type { i32, i32, i64, ptr, i32, i8, i8, i8, i8, i8, i8, i8, i8, i8, ptr, ptr, ptr, ptr, ptr }
%struct.LogicalRepPreparedTxnData = type { i64, i64, i64, i32, [200 x i8] }

@MySubscription = dso_local global ptr null, align 8
@replorigin_session_origin_lsn = external global i64, align 8
@replorigin_session_origin_timestamp = external global i64, align 8

; Function Attrs: nounwind uwtable
define internal void @apply_handle_prepare_internal(ptr noundef %0) #0 {
  %2 = alloca ptr, align 8
  %3 = alloca [200 x i8], align 16
  store ptr %0, ptr %2, align 8
  call void @llvm.lifetime.start.p0(i64 200, ptr %3) #12
  %4 = load ptr, ptr @MySubscription, align 8
  %5 = getelementptr inbounds nuw %struct.Subscription, ptr %4, i32 0, i32 0
  %6 = load i32, ptr %5, align 8
  %7 = load ptr, ptr %2, align 8
  %8 = getelementptr inbounds nuw %struct.LogicalRepPreparedTxnData, ptr %7, i32 0, i32 3
  %9 = load i32, ptr %8, align 8
  %10 = getelementptr inbounds [200 x i8], ptr %3, i64 0, i64 0
  call void @TwoPhaseTransactionGid(i32 noundef %6, i32 noundef %9, ptr noundef %10, i32 noundef 200)
  %11 = call zeroext i1 @IsTransactionBlock()
  br i1 %11, label %13, label %12

12:                                               ; preds = %1
  call void @BeginTransactionBlock()
  call void @CommitTransactionCommand()
  br label %13

13:                                               ; preds = %12, %1
  %14 = load ptr, ptr %2, align 8
  %15 = getelementptr inbounds nuw %struct.LogicalRepPreparedTxnData, ptr %14, i32 0, i32 1
  %16 = load i64, ptr %15, align 8
  store i64 %16, ptr @replorigin_session_origin_lsn, align 8
  %17 = load ptr, ptr %2, align 8
  %18 = getelementptr inbounds nuw %struct.LogicalRepPreparedTxnData, ptr %17, i32 0, i32 2
  %19 = load i64, ptr %18, align 8
  store i64 %19, ptr @replorigin_session_origin_timestamp, align 8
  %20 = getelementptr inbounds [200 x i8], ptr %3, i64 0, i64 0
  %21 = call zeroext i1 @PrepareTransactionBlock(ptr noundef %20)
  call void @llvm.lifetime.end.p0(i64 200, ptr %3) #12
  ret void
}