; Function Attrs: nounwind uwtable
define internal fastcc void @apply_handle_prepare_internal(ptr noundef nonnull readonly captures(none) %0) unnamed_addr #0 {
  %2 = alloca [200 x i8], align 16
  call void @llvm.lifetime.start.p0(i64 200, ptr nonnull %2) #17
  %3 = load ptr, ptr @MySubscription, align 8
  %4 = load i32, ptr %3, align 8
  %5 = getelementptr inbounds nuw i8, ptr %0, i64 24
  %6 = load i32, ptr %5, align 8
  call void @TwoPhaseTransactionGid(i32 noundef %4, i32 noundef %6, ptr noundef nonnull %2, i32 noundef 200) #17
  %7 = call zeroext i1 @IsTransactionBlock() #17
  br i1 %7, label %9, label %8

8:                                                ; preds = %1
  call void @BeginTransactionBlock() #17
  call void @CommitTransactionCommand() #17
  br label %9

9:                                                ; preds = %8, %1
  %10 = getelementptr inbounds nuw i8, ptr %0, i64 8
  %11 = load i64, ptr %10, align 8
  store i64 %11, ptr @replorigin_session_origin_lsn, align 8
  %12 = getelementptr inbounds nuw i8, ptr %0, i64 16
  %13 = load i64, ptr %12, align 8
  store i64 %13, ptr @replorigin_session_origin_timestamp, align 8
  %14 = call zeroext i1 @PrepareTransactionBlock(ptr noundef nonnull %2) #17
  call void @llvm.lifetime.end.p0(i64 200, ptr nonnull %2) #17
  ret void
}